target datalayout = "e-m:e-p270:32:32-p271:32:32-p272:64:64-i64:64-i128:128-f80:128-n8:16:32:64-S128"
target triple = "x86_64-pc-linux-gnu"

%struct.nstime_t = type { i64, i32 }
%struct._packet_info = type { ptr, ptr, i32, i32, %struct.nstime_t, %struct.nstime_t, %struct.nstime_t, i32, ptr, ptr, ptr, ptr, %struct._address, %struct._address, %struct._address, %struct._address, %struct._address, %struct._address, i32, ptr, i32, %struct.anon, i32, i32, i32, i32, ptr, i32, ptr, ptr, i16, i16, i32, i32, i16, i32, i32, ptr, ptr, ptr, i8, i8, i16, i16, i16, i32, i16, i16, ptr, ptr, ptr, ptr, ptr, i32 }
%struct._address = type { i32, i32, ptr, ptr }
%struct.anon = type { i8, [3 x i8] }

@.str.406 = private unnamed_addr constant [34 x i8] c"%u-%u-%u, %u:%u:%u.%u UTC %s%u:%u\00", align 1
@.str.407 = private unnamed_addr constant [22 x i8] c"%u-%u-%u, %u:%u:%u.%u\00", align 1

; Function Attrs: nounwind uwtable
define internal ptr @dissect_snmp_variable_date_and_time(ptr noundef %0, ptr noundef %1, i32 noundef %2, ptr noundef %3, i32 noundef %4, i32 noundef %5) #0 {
  %7 = alloca ptr, align 8
  %8 = alloca ptr, align 8
  %9 = alloca i32, align 4
  %10 = alloca ptr, align 8
  %11 = alloca i32, align 4
  %12 = alloca i32, align 4
  %13 = alloca i16, align 2
  %14 = alloca i8, align 1
  %15 = alloca i8, align 1
  %16 = alloca i8, align 1
  %17 = alloca i8, align 1
  %18 = alloca i8, align 1
  %19 = alloca i8, align 1
  %20 = alloca i8, align 1
  %21 = alloca i8, align 1
  %22 = alloca ptr, align 8
  store ptr %0, ptr %7, align 8
  store ptr %1, ptr %8, align 8
  store i32 %2, ptr %9, align 4
  store ptr %3, ptr %10, align 8
  store i32 %4, ptr %11, align 4
  store i32 %5, ptr %12, align 4
  %23 = load ptr, ptr %10, align 8
  %24 = load i32, ptr %11, align 4
  %25 = call zeroext i16 @tvb_get_ntohs(ptr noundef %23, i32 noundef %24)
  store i16 %25, ptr %13, align 2
  %26 = load ptr, ptr %10, align 8
  %27 = load i32, ptr %11, align 4
  %28 = add i32 %27, 2
  %29 = call zeroext i8 @tvb_get_guint8(ptr noundef %26, i32 noundef %28)
  store i8 %29, ptr %14, align 1
  %30 = load ptr, ptr %10, align 8
  %31 = load i32, ptr %11, align 4
  %32 = add i32 %31, 3
  %33 = call zeroext i8 @tvb_get_guint8(ptr noundef %30, i32 noundef %32)
  store i8 %33, ptr %15, align 1
  %34 = load ptr, ptr %10, align 8
  %35 = load i32, ptr %11, align 4
  %36 = add i32 %35, 4
  %37 = call zeroext i8 @tvb_get_guint8(ptr noundef %34, i32 noundef %36)
  store i8 %37, ptr %16, align 1
  %38 = load ptr, ptr %10, align 8
  %39 = load i32, ptr %11, align 4
  %40 = add i32 %39, 5
  %41 = call zeroext i8 @tvb_get_guint8(ptr noundef %38, i32 noundef %40)
  store i8 %41, ptr %17, align 1
  %42 = load ptr, ptr %10, align 8
  %43 = load i32, ptr %11, align 4
  %44 = add i32 %43, 6
  %45 = call zeroext i8 @tvb_get_guint8(ptr noundef %42, i32 noundef %44)
  store i8 %45, ptr %18, align 1
  %46 = load ptr, ptr %10, align 8
  %47 = load i32, ptr %11, align 4
  %48 = add i32 %47, 7
  %49 = call zeroext i8 @tvb_get_guint8(ptr noundef %46, i32 noundef %48)
  store i8 %49, ptr %19, align 1
  %50 = load i32, ptr %12, align 4
  %51 = icmp sgt i32 %50, 8
  br i1 %51, label %52, label %90

52:                                               ; preds = %6
  %53 = load ptr, ptr %10, align 8
  %54 = load i32, ptr %11, align 4
  %55 = add i32 %54, 9
  %56 = call zeroext i8 @tvb_get_guint8(ptr noundef %53, i32 noundef %55)
  store i8 %56, ptr %20, align 1
  %57 = load ptr, ptr %10, align 8
  %58 = load i32, ptr %11, align 4
  %59 = add i32 %58, 10
  %60 = call zeroext i8 @tvb_get_guint8(ptr noundef %57, i32 noundef %59)
  store i8 %60, ptr %21, align 1
  %61 = load ptr, ptr %8, align 8
  %62 = getelementptr inbounds %struct._packet_info, ptr %61, i32 0, i32 50
  %63 = load ptr, ptr %62, align 8
  %64 = load i16, ptr %13, align 2
  %65 = zext i16 %64 to i32
  %66 = load i8, ptr %14, align 1
  %67 = zext i8 %66 to i32
  %68 = load i8, ptr %15, align 1
  %69 = zext i8 %68 to i32
  %70 = load i8, ptr %16, align 1
  %71 = zext i8 %70 to i32
  %72 = load i8, ptr %17, align 1
  %73 = zext i8 %72 to i32
  %74 = load i8, ptr %18, align 1
  %75 = zext i8 %74 to i32
  %76 = load i8, ptr %19, align 1
  %77 = zext i8 %76 to i32
  %78 = load ptr, ptr %8, align 8
  %79 = getelementptr inbounds %struct._packet_info, ptr %78, i32 0, i32 50
  %80 = load ptr, ptr %79, align 8
  %81 = load ptr, ptr %10, align 8
  %82 = load i32, ptr %11, align 4
  %83 = add i32 %82, 8
  %84 = call ptr @tvb_get_string_enc(ptr noundef %80, ptr noundef %81, i32 noundef %83, i32 noundef 1, i32 noundef 0)
  %85 = load i8, ptr %20, align 1
  %86 = zext i8 %85 to i32
  %87 = load i8, ptr %21, align 1
  %88 = zext i8 %87 to i32
  %89 = call noalias ptr (ptr, ptr, ...) @wmem_strdup_printf(ptr noundef %63, ptr noundef @.str.406, i32 noundef %65, i32 noundef %67, i32 noundef %69, i32 noundef %71, i32 noundef %73, i32 noundef %75, i32 noundef %77, ptr noundef %84, i32 noundef %86, i32 noundef %88)
  store ptr %89, ptr %22, align 8
  br label %109

90:                                               ; preds = %6
  %91 = load ptr, ptr %8, align 8
  %92 = getelementptr inbounds %struct._packet_info, ptr %91, i32 0, i32 50
  %93 = load ptr, ptr %92, align 8
  %94 = load i16, ptr %13, align 2
  %95 = zext i16 %94 to i32
  %96 = load i8, ptr %14, align 1
  %97 = zext i8 %96 to i32
  %98 = load i8, ptr %15, align 1
  %99 = zext i8 %98 to i32
  %100 = load i8, ptr %16, align 1
  %101 = zext i8 %100 to i32
  %102 = load i8, ptr %17, align 1
  %103 = zext i8 %102 to i32
  %104 = load i8, ptr %18, align 1
  %105 = zext i8 %104 to i32
  %106 = load i8, ptr %19, align 1
  %107 = zext i8 %106 to i32
  %108 = call noalias ptr (ptr, ptr, ...) @wmem_strdup_printf(ptr noundef %93, ptr noundef @.str.407, i32 noundef %95, i32 noundef %97, i32 noundef %99, i32 noundef %101, i32 noundef %103, i32 noundef %105, i32 noundef %107)
  store ptr %108, ptr %22, align 8
  br label %109

109:                                              ; preds = %90, %52
  %110 = load ptr, ptr %7, align 8
  %111 = load i32, ptr %9, align 4
  %112 = load ptr, ptr %10, align 8
  %113 = load i32, ptr %11, align 4
  %114 = load i32, ptr %12, align 4
  %115 = load ptr, ptr %22, align 8
  %116 = call ptr @proto_tree_add_string(ptr noundef %110, i32 noundef %111, ptr noundef %112, i32 noundef %113, i32 noundef %114, ptr noundef %115)
  ret ptr %116
}