; Function Attrs: nounwind uwtable
define internal fastcc ptr @dissect_snmp_variable_date_and_time(ptr noundef %0, ptr noundef readonly captures(none) %1, i32 noundef %2, ptr noundef %3, i32 noundef %4, i32 noundef range(i32 8, 0) %5) unnamed_addr #0 {
  %7 = tail call zeroext i16 @tvb_get_ntohs(ptr noundef %3, i32 noundef %4) #11
  %8 = add i32 %4, 2
  %9 = tail call zeroext i8 @tvb_get_guint8(ptr noundef %3, i32 noundef %8) #11
  %10 = add i32 %4, 3
  %11 = tail call zeroext i8 @tvb_get_guint8(ptr noundef %3, i32 noundef %10) #11
  %12 = add i32 %4, 4
  %13 = tail call zeroext i8 @tvb_get_guint8(ptr noundef %3, i32 noundef %12) #11
  %14 = add i32 %4, 5
  %15 = tail call zeroext i8 @tvb_get_guint8(ptr noundef %3, i32 noundef %14) #11
  %16 = add i32 %4, 6
  %17 = tail call zeroext i8 @tvb_get_guint8(ptr noundef %3, i32 noundef %16) #11
  %18 = add i32 %4, 7
  %19 = tail call zeroext i8 @tvb_get_guint8(ptr noundef %3, i32 noundef %18) #11
  %20 = icmp sgt i32 %5, 8
  br i1 %20, label %21, label %40

21:                                               ; preds = %6
  %22 = add i32 %4, 9
  %23 = tail call zeroext i8 @tvb_get_guint8(ptr noundef %3, i32 noundef %22) #11
  %24 = add i32 %4, 10
  %25 = tail call zeroext i8 @tvb_get_guint8(ptr noundef %3, i32 noundef %24) #11
  %26 = getelementptr inbounds nuw i8, ptr %1, i64 408
  %27 = load ptr, ptr %26, align 8
  %28 = zext i16 %7 to i32
  %29 = zext i8 %9 to i32
  %30 = zext i8 %11 to i32
  %31 = zext i8 %13 to i32
  %32 = zext i8 %15 to i32
  %33 = zext i8 %17 to i32
  %34 = zext i8 %19 to i32
  %35 = add i32 %4, 8
  %36 = tail call ptr @tvb_get_string_enc(ptr noundef %27, ptr noundef %3, i32 noundef %35, i32 noundef 1, i32 noundef 0) #11
  %37 = zext i8 %23 to i32
  %38 = zext i8 %25 to i32
  %39 = tail call noalias ptr (ptr, ptr, ...) @wmem_strdup_printf(ptr noundef %27, ptr noundef nonnull @.str.406, i32 noundef %28, i32 noundef %29, i32 noundef %30, i32 noundef %31, i32 noundef %32, i32 noundef %33, i32 noundef %34, ptr noundef %36, i32 noundef %37, i32 noundef %38) #11
  br label %51

40:                                               ; preds = %6
  %41 = getelementptr inbounds nuw i8, ptr %1, i64 408
  %42 = load ptr, ptr %41, align 8
  %43 = zext i16 %7 to i32
  %44 = zext i8 %9 to i32
  %45 = zext i8 %11 to i32
  %46 = zext i8 %13 to i32
  %47 = zext i8 %15 to i32
  %48 = zext i8 %17 to i32
  %49 = zext i8 %19 to i32
  %50 = tail call noalias ptr (ptr, ptr, ...) @wmem_strdup_printf(ptr noundef %42, ptr noundef nonnull @.str.407, i32 noundef %43, i32 noundef %44, i32 noundef %45, i32 noundef %46, i32 noundef %47, i32 noundef %48, i32 noundef %49) #11
  br label %51

51:                                               ; preds = %40, %21
  %.0 = phi ptr [ %39, %21 ], [ %50, %40 ]
  %52 = tail call ptr @proto_tree_add_string(ptr noundef %0, i32 noundef %2, ptr noundef %3, i32 noundef %4, i32 noundef %5, ptr noundef %.0) #11
  ret ptr %52
}